target datalayout = "e-m:e-p270:32:32-p271:32:32-p272:64:64-i64:64-i128:128-f80:128-n8:16:32:64-S128"
target triple = "x86_64-pc-linux-gnu"

%struct.TS_resp_ctx = type { ptr, ptr, ptr, ptr, ptr, ptr, ptr, ptr, ptr, ptr, ptr, i32, i32, ptr, ptr, ptr, ptr, ptr, ptr, ptr, ptr, ptr, ptr, ptr }

@.str = private unnamed_addr constant [35 x i8] c"../openssl/crypto/ts/ts_rsp_sign.c\00", align 1
@__func__.TS_RESP_CTX_set_def_policy = private unnamed_addr constant [27 x i8] c"TS_RESP_CTX_set_def_policy\00", align 1

; Function Attrs: nounwind uwtable
define i32 @TS_RESP_CTX_set_def_policy(ptr noundef %0, ptr noundef %1) #0 {
  %3 = alloca i32, align 4
  %4 = alloca ptr, align 8
  %5 = alloca ptr, align 8
  store ptr %0, ptr %4, align 8, !tbaa !10
  store ptr %1, ptr %5, align 8, !tbaa !58
  %6 = load ptr, ptr %4, align 8, !tbaa !10
  %7 = getelementptr inbounds nuw %struct.TS_resp_ctx, ptr %6, i32 0, i32 6
  %8 = load ptr, ptr %7, align 8, !tbaa !47
  call void @ASN1_OBJECT_free(ptr noundef %8)
  %9 = load ptr, ptr %5, align 8, !tbaa !58
  %10 = call ptr @OBJ_dup(ptr noundef %9)
  %11 = load ptr, ptr %4, align 8, !tbaa !10
  %12 = getelementptr inbounds nuw %struct.TS_resp_ctx, ptr %11, i32 0, i32 6
  store ptr %10, ptr %12, align 8, !tbaa !47
  %13 = icmp eq ptr %10, null
  br i1 %13, label %14, label %15

14:                                               ; preds = %2
  br label %16

15:                                               ; preds = %2
  store i32 1, ptr %3, align 4
  br label %17

16:                                               ; preds = %14
  call void @ERR_new()
  call void @ERR_set_debug(ptr noundef @.str, i32 noundef 173, ptr noundef @__func__.TS_RESP_CTX_set_def_policy)
  call void (i32, i32, ptr, ...) @ERR_set_error(i32 noundef 47, i32 noundef 524296, ptr noundef null)
  store i32 0, ptr %3, align 4
  br label %17

17:                                               ; preds = %16, %15
  %18 = load i32, ptr %3, align 4
  ret i32 %18
}