; Function Attrs: nounwind uwtable
define range(i32 0, 2) i32 @TS_RESP_CTX_set_def_policy(ptr noundef captures(none) %0, ptr noundef %1) local_unnamed_addr #0 {
  %3 = getelementptr inbounds nuw i8, ptr %0, i64 48
  %4 = load ptr, ptr %3, align 8, !tbaa !40
  tail call void @ASN1_OBJECT_free(ptr noundef %4) #9
  %5 = tail call ptr @OBJ_dup(ptr noundef %1) #9
  store ptr %5, ptr %3, align 8, !tbaa !40
  %6 = icmp eq ptr %5, null
  br i1 %6, label %7, label %8

7:                                                ; preds = %2
  tail call void @ERR_new() #9
  tail call void @ERR_set_debug(ptr noundef nonnull @.str, i32 noundef 173, ptr noundef nonnull @__func__.TS_RESP_CTX_set_def_policy) #9
  tail call void (i32, i32, ptr, ...) @ERR_set_error(i32 noundef 47, i32 noundef 524296, ptr noundef null) #9
  br label %8

8:                                                ; preds = %2, %7
  %.0 = phi i32 [ 0, %7 ], [ 1, %2 ]
  ret i32 %.0
}